; Function Attrs: mustprogress nofree norecurse nosync nounwind willreturn memory(readwrite, inaccessiblemem: none) uwtable
define dso_local noundef zeroext i1 @hdr_record_value(ptr nocapture noundef %h, i64 noundef %value) local_unnamed_addr #10 {
entry:
  %cmp.i = icmp slt i64 %value, 0
  br i1 %cmp.i, label %hdr_record_values.exit, label %if.end.i

if.end.i:                                         ; preds = %entry
  %sub_bucket_mask.i.i.i = getelementptr inbounds i8, ptr %h, i64 32
  %0 = load i64, ptr %sub_bucket_mask.i.i.i, align 8
  %or.i.i.i = or i64 %0, %value
  %1 = tail call i64 @llvm.ctlz.i64(i64 %or.i.i.i, i1 true), !range !5
  %cast.i.i.i.i = trunc i64 %1 to i32
  %unit_magnitude.i.i.i = getelementptr inbounds i8, ptr %h, i64 16
  %2 = load i32, ptr %unit_magnitude.i.i.i, align 8
  %sub_bucket_half_count_magnitude.i.i.i = getelementptr inbounds i8, ptr %h, i64 24
  %3 = load i32, ptr %sub_bucket_half_count_magnitude.i.i.i, align 8
  %4 = add i32 %3, %2
  %5 = add i32 %4, %cast.i.i.i.i
  %reass.sub.i.i = add i32 %2, 63
  %add.i.i.i = sub i32 %reass.sub.i.i, %5
  %sh_prom.i.i.i = zext nneg i32 %add.i.i.i to i64
  %shr.i.i.i = lshr i64 %value, %sh_prom.i.i.i
  %conv.i.i.i = trunc i64 %shr.i.i.i to i32
  %6 = getelementptr i8, ptr %h, i64 28
  %h.val5.i.i = load i32, ptr %6, align 4
  %add.i6.i.i = sub i32 64, %5
  %shl.i.i.i = shl i32 %add.i6.i.i, %3
  %sub.i.i.i = sub i32 %shl.i.i.i, %h.val5.i.i
  %add1.i.i.i = add i32 %sub.i.i.i, %conv.i.i.i
  %cmp1.i = icmp slt i32 %add1.i.i.i, 0
  br i1 %cmp1.i, label %hdr_record_values.exit, label %lor.lhs.false.i

lor.lhs.false.i:                                  ; preds = %if.end.i
  %counts_len.i = getelementptr inbounds i8, ptr %h, i64 80
  %7 = load i32, ptr %counts_len.i, align 8
  %cmp2.not.i = icmp sgt i32 %7, %add1.i.i.i
  br i1 %cmp2.not.i, label %if.end4.i, label %hdr_record_values.exit

if.end4.i:                                        ; preds = %lor.lhs.false.i
  %normalizing_index_offset.i.i.i = getelementptr inbounds i8, ptr %h, i64 64
  %8 = load i32, ptr %normalizing_index_offset.i.i.i, align 8
  %cmp.i.i.i = icmp eq i32 %8, 0
  br i1 %cmp.i.i.i, label %counts_inc_normalised.exit.i, label %if.end.i.i.i

if.end.i.i.i:                                     ; preds = %if.end4.i
  %sub.i.i8.i = sub nsw i32 %add1.i.i.i, %8
  %cmp2.i.i.i = icmp slt i32 %sub.i.i8.i, 0
  %cmp5.not.i.i.i = icmp slt i32 %sub.i.i8.i, %7
  %sub8.i.i.i = sub nsw i32 0, %7
  %spec.select.i.i.i = select i1 %cmp5.not.i.i.i, i32 0, i32 %sub8.i.i.i
  %adjustment.0.i.i.i = select i1 %cmp2.i.i.i, i32 %7, i32 %spec.select.i.i.i
  %add.i.i9.i = add nsw i32 %adjustment.0.i.i.i, %sub.i.i8.i
  br label %counts_inc_normalised.exit.i

counts_inc_normalised.exit.i:                     ; preds = %if.end.i.i.i, %if.end4.i
  %retval.0.i.i.i = phi i32 [ %add.i.i9.i, %if.end.i.i.i ], [ %add1.i.i.i, %if.end4.i ]
  %counts.i.i = getelementptr inbounds i8, ptr %h, i64 96
  %9 = load ptr, ptr %counts.i.i, align 8
  %idxprom.i.i = sext i32 %retval.0.i.i.i to i64
  %arrayidx.i.i = getelementptr inbounds i64, ptr %9, i64 %idxprom.i.i
  %10 = load i64, ptr %arrayidx.i.i, align 8
  %add.i.i = add nsw i64 %10, 1
  store i64 %add.i.i, ptr %arrayidx.i.i, align 8
  %total_count.i.i = getelementptr inbounds i8, ptr %h, i64 88
  %11 = load i64, ptr %total_count.i.i, align 8
  %add1.i.i = add nsw i64 %11, 1
  store i64 %add1.i.i, ptr %total_count.i.i, align 8
  %min_value.i.i = getelementptr inbounds i8, ptr %h, i64 48
  %12 = load i64, ptr %min_value.i.i, align 8
  %cmp1.not.i.i = icmp eq i64 %value, 0
  %13 = tail call i64 @llvm.smin.i64(i64 %12, i64 %value)
  %value..i.i = select i1 %cmp1.not.i.i, i64 %12, i64 %13
  store i64 %value..i.i, ptr %min_value.i.i, align 8
  %max_value.i.i = getelementptr inbounds i8, ptr %h, i64 56
  %14 = load i64, ptr %max_value.i.i, align 8
  %cond9.i.i = tail call i64 @llvm.smax.i64(i64 %14, i64 %value)
  store i64 %cond9.i.i, ptr %max_value.i.i, align 8
  br label %hdr_record_values.exit

hdr_record_values.exit:                           ; preds = %entry, %if.end.i, %lor.lhs.false.i, %counts_inc_normalised.exit.i
  %retval.0.i = phi i1 [ true, %counts_inc_normalised.exit.i ], [ false, %entry ], [ false, %lor.lhs.false.i ], [ false, %if.end.i ]
  ret i1 %retval.0.i
}